ARM GAS  /var/folders/qt/4s_5gkqn5dzd2yn1mvbv2ymw0000gn/T//cci8QgSn.s 			page 1


   1              		.cpu cortex-m7
   2              		.eabi_attribute 27, 1	@ Tag_ABI_HardFP_use
   3              		.eabi_attribute 28, 1	@ Tag_ABI_VFP_args
   4              		.eabi_attribute 20, 1	@ Tag_ABI_FP_denormal
   5              		.eabi_attribute 21, 1	@ Tag_ABI_FP_exceptions
   6              		.eabi_attribute 23, 3	@ Tag_ABI_FP_number_model
   7              		.eabi_attribute 24, 1	@ Tag_ABI_align8_needed
   8              		.eabi_attribute 25, 1	@ Tag_ABI_align8_preserved
   9              		.eabi_attribute 26, 1	@ Tag_ABI_enum_size
  10              		.eabi_attribute 30, 2	@ Tag_ABI_optimization_goals
  11              		.eabi_attribute 34, 1	@ Tag_CPU_unaligned_access
  12              		.eabi_attribute 18, 4	@ Tag_ABI_PCS_wchar_t
  13              		.file	"main.c"
  14              	@ GNU C17 (GNU Tools for Arm Embedded Processors 9-2019-q4-major) version 9.2.1 20191025 (release) 
  15              	@	compiled by GNU C version 4.2.1 Compatible Apple LLVM 9.0.0 (clang-900.0.39.2), GMP version 6.1.0
  16              	
  17              	@ GGC heuristics: --param ggc-min-expand=100 --param ggc-min-heapsize=131072
  18              	@ options passed:  -I . -I .
  19              	@ -I /Users/pomettini/Developer/PlaydateSDK/C_API
  20              	@ -imultilib thumb/v7e-m+fp/hard
  21              	@ -iprefix /usr/local/playdate/gcc-arm-none-eabi-9-2019-q4-major/bin/../lib/gcc/arm-none-eabi/9.2.1
  22              	@ -isysroot /usr/local/playdate/gcc-arm-none-eabi-9-2019-q4-major/bin/../arm-none-eabi
  23              	@ -MD build/src/main.d -MF build/dep/main.o.d -MP -MQ build/src/main.o
  24              	@ -D__USES_INITFINI__ -D __FPU_USED=1 -D TARGET_PLAYDATE=1
  25              	@ -D TARGET_EXTENSION=1 src/main.c -mthumb -mcpu=cortex-m7 -mfloat-abi=hard
  26              	@ -mfpu=fpv5-sp-d16 -mword-relocations -march=armv7e-m+fpv5
  27              	@ -auxbase-strip build/src/main.o -g3 -gdwarf-2 -O2 -Wall -Wno-unused
  28              	@ -Wstrict-prototypes -Wno-unknown-pragmas -Wdouble-promotion
  29              	@ -falign-functions=16 -fomit-frame-pointer -fverbose-asm -fno-common
  30              	@ -ffunction-sections -fdata-sections
  31              	@ options enabled:  -faggressive-loop-optimizations -falign-functions
  32              	@ -falign-jumps -falign-labels -falign-loops -fassume-phsa -fauto-inc-dec
  33              	@ -fbranch-count-reg -fcaller-saves -fcombine-stack-adjustments
  34              	@ -fcompare-elim -fcprop-registers -fcrossjumping -fcse-follow-jumps
  35              	@ -fdata-sections -fdefer-pop -fdelete-null-pointer-checks -fdevirtualize
  36              	@ -fdevirtualize-speculatively -fdwarf2-cfi-asm -fearly-inlining
  37              	@ -feliminate-unused-debug-types -fexpensive-optimizations
  38              	@ -fforward-propagate -ffp-int-builtin-inexact -ffunction-cse
  39              	@ -ffunction-sections -fgcse -fgcse-lm -fgnu-runtime -fgnu-unique
  40              	@ -fguess-branch-probability -fhoist-adjacent-loads -fident -fif-conversion
  41              	@ -fif-conversion2 -findirect-inlining -finline -finline-atomics
  42              	@ -finline-functions-called-once -finline-small-functions -fipa-bit-cp
  43              	@ -fipa-cp -fipa-icf -fipa-icf-functions -fipa-icf-variables -fipa-profile
  44              	@ -fipa-pure-const -fipa-ra -fipa-reference -fipa-reference-addressable
  45              	@ -fipa-sra -fipa-stack-alignment -fipa-vrp -fira-hoist-pressure
  46              	@ -fira-share-save-slots -fira-share-spill-slots
  47              	@ -fisolate-erroneous-paths-dereference -fivopts -fkeep-static-consts
  48              	@ -fleading-underscore -flifetime-dse -flra-remat -flto-odr-type-merging
  49              	@ -fmath-errno -fmerge-constants -fmerge-debug-strings
  50              	@ -fmove-loop-invariants -fomit-frame-pointer -foptimize-sibling-calls
  51              	@ -foptimize-strlen -fpartial-inlining -fpeephole -fpeephole2 -fplt
  52              	@ -fprefetch-loop-arrays -freg-struct-return -freorder-blocks
  53              	@ -freorder-functions -frerun-cse-after-loop
  54              	@ -fsched-critical-path-heuristic -fsched-dep-count-heuristic
  55              	@ -fsched-group-heuristic -fsched-interblock -fsched-last-insn-heuristic
  56              	@ -fsched-pressure -fsched-rank-heuristic -fsched-spec
  57              	@ -fsched-spec-insn-heuristic -fsched-stalled-insns-dep -fschedule-insns
ARM GAS  /var/folders/qt/4s_5gkqn5dzd2yn1mvbv2ymw0000gn/T//cci8QgSn.s 			page 2


  58              	@ -fschedule-insns2 -fsection-anchors -fsemantic-interposition
  59              	@ -fshow-column -fshrink-wrap -fshrink-wrap-separate -fsigned-zeros
  60              	@ -fsplit-ivs-in-unroller -fsplit-wide-types -fssa-backprop -fssa-phiopt
  61              	@ -fstdarg-opt -fstore-merging -fstrict-aliasing
  62              	@ -fstrict-volatile-bitfields -fsync-libcalls -fthread-jumps
  63              	@ -ftoplevel-reorder -ftrapping-math -ftree-bit-ccp -ftree-builtin-call-dce
  64              	@ -ftree-ccp -ftree-ch -ftree-coalesce-vars -ftree-copy-prop -ftree-cselim
  65              	@ -ftree-dce -ftree-dominator-opts -ftree-dse -ftree-forwprop -ftree-fre
  66              	@ -ftree-loop-if-convert -ftree-loop-im -ftree-loop-ivcanon
  67              	@ -ftree-loop-optimize -ftree-parallelize-loops= -ftree-phiprop -ftree-pre
  68              	@ -ftree-pta -ftree-reassoc -ftree-scev-cprop -ftree-sink -ftree-slsr
  69              	@ -ftree-sra -ftree-switch-conversion -ftree-tail-merge -ftree-ter
  70              	@ -ftree-vrp -funit-at-a-time -fvar-tracking -fvar-tracking-assignments
  71              	@ -fverbose-asm -fzero-initialized-in-bss -masm-syntax-unified -mbe32
  72              	@ -mlittle-endian -mpic-data-is-text-relative -msched-prolog -mthumb
  73              	@ -munaligned-access -mvectorize-with-neon-quad -mword-relocations
  74              	
  75              		.text
  76              	.Ltext0:
  77              		.cfi_sections	.debug_frame
  78              		.section	.text.update,"ax",%progbits
  79              		.align	1
  80              		.p2align 4,,15
  81              		.arch armv7e-m
  82              		.syntax unified
  83              		.thumb
  84              		.thumb_func
  85              		.fpu fpv5-sp-d16
  86              		.type	update, %function
  87              	update:
  88              	.LVL0:
  89              	.LFB21:
  90              		.file 1 "src/main.c"
   1:src/main.c    **** #include <stdio.h>
   2:src/main.c    **** #include <stdlib.h>
   3:src/main.c    **** 
   4:src/main.c    **** #include "pd_api.h"
   5:src/main.c    **** 
   6:src/main.c    **** typedef struct
   7:src/main.c    **** {
   8:src/main.c    ****     float x;
   9:src/main.c    ****     float y;
  10:src/main.c    ****     float z;
  11:src/main.c    ****     float pz;
  12:src/main.c    **** } star_t;
  13:src/main.c    **** 
  14:src/main.c    **** #define STARS 10000
  15:src/main.c    **** 
  16:src/main.c    **** #define WIDTH 400
  17:src/main.c    **** #define HEIGHT 240
  18:src/main.c    **** 
  19:src/main.c    **** static inline void star_new(star_t *star);
  20:src/main.c    **** static inline void star_update(star_t *star, const float speed);
  21:src/main.c    **** static inline void star_show(star_t *star, PlaydateAPI *pd);
  22:src/main.c    **** static inline float map(float value, float start1, float stop1, float start2, float stop2);
  23:src/main.c    **** static inline int randomf(int value, int min, int max);
  24:src/main.c    **** static int update(void *userdata);
ARM GAS  /var/folders/qt/4s_5gkqn5dzd2yn1mvbv2ymw0000gn/T//cci8QgSn.s 			page 3


  25:src/main.c    **** 
  26:src/main.c    **** static star_t starfield[STARS];
  27:src/main.c    **** 
  28:src/main.c    **** static inline void star_new(star_t *star)
  29:src/main.c    **** {
  30:src/main.c    ****     int z = randomf(rand(), 0, WIDTH);
  31:src/main.c    ****     star->x = randomf(rand(), -WIDTH, WIDTH);
  32:src/main.c    ****     star->y = randomf(rand(), -HEIGHT, HEIGHT);
  33:src/main.c    ****     star->z = z;
  34:src/main.c    ****     star->pz = star->pz;
  35:src/main.c    **** }
  36:src/main.c    **** 
  37:src/main.c    **** static inline void star_update(star_t *star, const float speed)
  38:src/main.c    **** {
  39:src/main.c    ****     star->z -= speed;
  40:src/main.c    ****     if (star->z < 1.0f)
  41:src/main.c    ****     {
  42:src/main.c    ****         star->z = WIDTH;
  43:src/main.c    ****         star->x = randomf(rand(), -WIDTH, WIDTH);
  44:src/main.c    ****         star->y = randomf(rand(), -HEIGHT, HEIGHT);
  45:src/main.c    ****         star->pz = star->z;
  46:src/main.c    ****     }
  47:src/main.c    **** }
  48:src/main.c    **** 
  49:src/main.c    **** static inline void star_show(star_t *star, PlaydateAPI *pd)
  50:src/main.c    **** {
  51:src/main.c    ****     float sx = map((star->x / star->z) + 0.5f, 0.0f, 1.0f, 0.0f, WIDTH);
  52:src/main.c    ****     float sy = map((star->y / star->z) + 0.5f, 0.0f, 1.0f, 0.0f, HEIGHT);
  53:src/main.c    **** 
  54:src/main.c    ****     float r = map(star->z, 0.0f, WIDTH, 4.0f, 0.0);
  55:src/main.c    **** 
  56:src/main.c    ****     float px = map((star->x / star->pz) + 0.5f, 0.0f, 1.0f, 0.0f, WIDTH);
  57:src/main.c    ****     float py = map((star->y / star->pz) + 0.5f, 0.0f, 1.0f, 0.0f, HEIGHT);
  58:src/main.c    **** 
  59:src/main.c    ****     star->pz = star->z;
  60:src/main.c    **** 
  61:src/main.c    ****     pd->graphics->drawLine(px, py, sx, sy, r, kColorWhite);
  62:src/main.c    **** }
  63:src/main.c    **** 
  64:src/main.c    **** static inline float map(float value, float start1, float stop1, float start2, float stop2)
  65:src/main.c    **** {
  66:src/main.c    ****     return start2 + (stop2 - start2) * ((value - start1) / (stop1 - start1));
  67:src/main.c    **** }
  68:src/main.c    **** 
  69:src/main.c    **** static inline int randomf(int value, int min, int max)
  70:src/main.c    **** {
  71:src/main.c    ****     return value % (max - min) + min;
  72:src/main.c    **** }
  73:src/main.c    **** 
  74:src/main.c    **** int eventHandler(PlaydateAPI *pd, PDSystemEvent event, uint32_t arg)
  75:src/main.c    **** {
  76:src/main.c    ****     if (event == kEventInit)
  77:src/main.c    ****     {
  78:src/main.c    ****         for (int i = 0; i < STARS; i++)
  79:src/main.c    ****         {
  80:src/main.c    ****             star_new(&starfield[i]);
  81:src/main.c    ****         }
ARM GAS  /var/folders/qt/4s_5gkqn5dzd2yn1mvbv2ymw0000gn/T//cci8QgSn.s 			page 4


  82:src/main.c    **** 
  83:src/main.c    ****         pd->display->setRefreshRate(50.0f);
  84:src/main.c    ****         pd->system->setUpdateCallback(update, pd);
  85:src/main.c    ****     }
  86:src/main.c    **** 
  87:src/main.c    ****     return 0;
  88:src/main.c    **** }
  89:src/main.c    **** 
  90:src/main.c    **** static int update(void *userdata)
  91:src/main.c    **** {
  91              		.loc 1 91 1 view -0
  92              		.cfi_startproc
  93              		@ args = 0, pretend = 0, frame = 0
  94              		@ frame_needed = 0, uses_anonymous_args = 0
  92:src/main.c    ****     PlaydateAPI *pd = userdata;
  95              		.loc 1 92 5 view .LVU1
  96              	@ src/main.c:91: {
  91:src/main.c    ****     PlaydateAPI *pd = userdata;
  97              		.loc 1 91 1 is_stmt 0 view .LVU2
  98 0000 2DE9F047 		push	{r4, r5, r6, r7, r8, r9, r10, lr}	@
  99              	.LCFI0:
 100              		.cfi_def_cfa_offset 32
 101              		.cfi_offset 4, -32
 102              		.cfi_offset 5, -28
 103              		.cfi_offset 6, -24
 104              		.cfi_offset 7, -20
 105              		.cfi_offset 8, -16
 106              		.cfi_offset 9, -12
 107              		.cfi_offset 10, -8
 108              		.cfi_offset 14, -4
 109 0004 0546     		mov	r5, r0	@ tmp224, userdata
 110              	@ src/main.c:94:     pd->graphics->clear(kColorBlack);
  93:src/main.c    **** 
  94:src/main.c    ****     pd->graphics->clear(kColorBlack);
 111              		.loc 1 94 5 view .LVU3
 112 0006 0020     		movs	r0, #0	@,
 113              	.LVL1:
 114              		.loc 1 94 5 view .LVU4
 115 0008 584C     		ldr	r4, .L10	@ ivtmp.15,
 116              	.LVL2:
 117              		.loc 1 94 5 is_stmt 1 view .LVU5
 118              	@ src/main.c:94:     pd->graphics->clear(kColorBlack);
 119              		.loc 1 94 17 is_stmt 0 view .LVU6
 120 000a AB68     		ldr	r3, [r5, #8]	@ MEM[(struct PlaydateAPI *)userdata_11(D)].graphics, MEM[(struct PlaydateAPI *)u
 121 000c 584E     		ldr	r6, .L10+4	@ _96,
 122              	@ src/main.c:94:     pd->graphics->clear(kColorBlack);
 123              		.loc 1 94 5 view .LVU7
 124 000e 5B68     		ldr	r3, [r3, #4]	@ _1->clear, _1->clear
 125              	.LBB51:
 126              	.LBB52:
 127              	.LBB53:
 128              	.LBB54:
 129              	.LBB55:
 130              	@ src/main.c:71:     return value % (max - min) + min;
  71:src/main.c    **** }
 131              		.loc 1 71 18 view .LVU8
 132 0010 DFF87081 		ldr	r8, .L10+24	@ tmp222,
ARM GAS  /var/folders/qt/4s_5gkqn5dzd2yn1mvbv2ymw0000gn/T//cci8QgSn.s 			page 5


 133              	.LBE55:
 134              	.LBE54:
 135              	.LBB58:
 136              	.LBB59:
 137 0014 574F     		ldr	r7, .L10+8	@ tmp223,
 138              	.LBE59:
 139              	.LBE58:
 140              	.LBE53:
 141              	.LBE52:
 142              	.LBE51:
 143              	@ src/main.c:91: {
  91:src/main.c    ****     PlaydateAPI *pd = userdata;
 144              		.loc 1 91 1 view .LVU9
 145 0016 2DED048B 		vpush.64	{d8, d9}	@
 146              	.LCFI1:
 147              		.cfi_def_cfa_offset 48
 148              		.cfi_offset 80, -48
 149              		.cfi_offset 81, -44
 150              		.cfi_offset 82, -40
 151              		.cfi_offset 83, -36
 152 001a 82B0     		sub	sp, sp, #8	@,,
 153              	.LCFI2:
 154              		.cfi_def_cfa_offset 56
 155              	.LBB117:
 156              	.LBB70:
 157              	.LBB67:
 158              	@ src/main.c:40:     if (star->z < 1.0f)
  40:src/main.c    ****     {
 159              		.loc 1 40 8 view .LVU10
 160 001c F7EE009A 		vmov.f32	s19, #1.0e+0	@ tmp164,
 161              	.LBE67:
 162              	.LBE70:
 163              	.LBE117:
 164              	@ src/main.c:94:     pd->graphics->clear(kColorBlack);
 165              		.loc 1 94 5 view .LVU11
 166 0020 9847     		blx	r3		@ _1->clear
 167              	.LVL3:
  95:src/main.c    ****     pd->system->drawFPS(0, 0);
 168              		.loc 1 95 5 is_stmt 1 view .LVU12
 169              	@ src/main.c:95:     pd->system->drawFPS(0, 0);
 170              		.loc 1 95 15 is_stmt 0 view .LVU13
 171 0022 2B68     		ldr	r3, [r5]	@ MEM[(struct PlaydateAPI *)userdata_11(D)].system, MEM[(struct PlaydateAPI *)userdat
 172              	@ src/main.c:95:     pd->system->drawFPS(0, 0);
 173              		.loc 1 95 5 view .LVU14
 174 0024 0021     		movs	r1, #0	@,
 175              	.LBB118:
 176              	.LBB71:
 177              	.LBB68:
 178              	@ src/main.c:42:         star->z = WIDTH;
  42:src/main.c    ****         star->x = randomf(rand(), -WIDTH, WIDTH);
 179              		.loc 1 42 17 view .LVU15
 180 0026 DFED548A 		vldr.32	s17, .L10+12	@ tmp221,
 181              	.LBE68:
 182              	.LBE71:
 183              	.LBE118:
 184              	@ src/main.c:95:     pd->system->drawFPS(0, 0);
 185              		.loc 1 95 5 view .LVU16
ARM GAS  /var/folders/qt/4s_5gkqn5dzd2yn1mvbv2ymw0000gn/T//cci8QgSn.s 			page 6


 186 002a DB69     		ldr	r3, [r3, #28]	@ _3->drawFPS, _3->drawFPS
 187 002c 0846     		mov	r0, r1	@,
 188              	.LBB119:
 189              	.LBB72:
 190              	.LBB73:
 191              	.LBB74:
 192              	.LBB75:
 193              	@ src/main.c:66:     return start2 + (stop2 - start2) * ((value - start1) / (stop1 - start1));
  66:src/main.c    **** }
 194              		.loc 1 66 19 view .LVU17
 195 002e 9FED538A 		vldr.32	s16, .L10+16	@ tmp193,
 196              	.LBE75:
 197              	.LBE74:
 198              	.LBB80:
 199              	.LBB81:
 200 0032 9FED539A 		vldr.32	s18, .L10+20	@ tmp197,
 201              	.LBE81:
 202              	.LBE80:
 203              	.LBE73:
 204              	.LBE72:
 205              	.LBE119:
 206              	@ src/main.c:95:     pd->system->drawFPS(0, 0);
 207              		.loc 1 95 5 view .LVU18
 208 0036 9847     		blx	r3		@ _3->drawFPS
 209              	.LVL4:
  96:src/main.c    **** 
  97:src/main.c    ****     for (int i = 0; i < STARS; i++)
 210              		.loc 1 97 5 is_stmt 1 view .LVU19
 211              	.LBB120:
 212              		.loc 1 97 10 view .LVU20
 213              		.loc 1 97 21 view .LVU21
 214 0038 56E0     		b	.L4		@
 215              	.LVL5:
 216              	.L9:
 217              		.loc 1 97 21 is_stmt 0 view .LVU22
 218 003a D4ED036A 		vldr.32	s13, [r4, #12]	@ pretmp_118, MEM[base: _105, offset: 12B]
 219              	.L3:
  98:src/main.c    ****     {
  99:src/main.c    ****         star_update(&starfield[i], pd->system->getCrankChange());
 100:src/main.c    ****         star_show(&starfield[i], pd);
 220              		.loc 1 100 9 is_stmt 1 view .LVU23
 221              	.LBB114:
 222              	.LBB112:
 223              	@ src/main.c:51:     float sx = map((star->x / star->z) + 0.5f, 0.0f, 1.0f, 0.0f, WIDTH);
  51:src/main.c    ****     float sy = map((star->y / star->z) + 0.5f, 0.0f, 1.0f, 0.0f, HEIGHT);
 224              		.loc 1 51 25 is_stmt 0 view .LVU24
 225 003e 94ED007A 		vldr.32	s14, [r4]	@ _20, MEM[base: _105, offset: 0B]
 226              	.LBB85:
 227              	.LBB86:
 228              	@ src/main.c:66:     return start2 + (stop2 - start2) * ((value - start1) / (stop1 - start1));
  66:src/main.c    **** }
 229              		.loc 1 66 58 view .LVU25
 230 0042 80EE284A 		vdiv.f32	s8, s0, s17	@ tmp199, _51, tmp221
 231              	.LBE86:
 232              	.LBE85:
 233              	@ src/main.c:52:     float sy = map((star->y / star->z) + 0.5f, 0.0f, 1.0f, 0.0f, HEIGHT);
  52:src/main.c    **** 
ARM GAS  /var/folders/qt/4s_5gkqn5dzd2yn1mvbv2ymw0000gn/T//cci8QgSn.s 			page 7


 234              		.loc 1 52 25 view .LVU26
 235 0046 D4ED017A 		vldr.32	s15, [r4, #4]	@ _26, MEM[base: _105, offset: 4B]
 236              	@ src/main.c:61:     pd->graphics->drawLine(px, py, sx, sy, r, kColorWhite);
  61:src/main.c    **** }
 237              		.loc 1 61 5 view .LVU27
 238 004a 4FF00109 		mov	r9, #1	@ tmp217,
 239              	.LBE112:
 240              	.LBE114:
 241              	@ src/main.c:100:         star_show(&starfield[i], pd);
 242              		.loc 1 100 9 view .LVU28
 243 004e AB68     		ldr	r3, [r5, #8]	@ _19, MEM[(const struct playdate_graphics * *)userdata_11(D) + 8B]
 244              	.LVL6:
 245              	.LBB115:
 246              	.LBI72:
  49:src/main.c    **** {
 247              		.loc 1 49 20 is_stmt 1 view .LVU29
 248              	.LBB113:
  51:src/main.c    ****     float sy = map((star->y / star->z) + 0.5f, 0.0f, 1.0f, 0.0f, HEIGHT);
 249              		.loc 1 51 5 view .LVU30
 250              	.LBB90:
 251              	.LBI74:
  64:src/main.c    **** {
 252              		.loc 1 64 21 view .LVU31
 253              	.LBB76:
  66:src/main.c    **** }
 254              		.loc 1 66 5 view .LVU32
 255 0050 1034     		adds	r4, r4, #16	@ ivtmp.15, ivtmp.15,
 256              	.LBE76:
 257              	.LBE90:
 258              	@ src/main.c:59:     star->pz = star->z;
  59:src/main.c    **** 
 259              		.loc 1 59 14 is_stmt 0 view .LVU33
 260 0052 04ED010A 		vstr.32	s0, [r4, #-4]	@ _51, MEM[base: _105, offset: 12B]
 261              	@ src/main.c:61:     pd->graphics->drawLine(px, py, sx, sy, r, kColorWhite);
  61:src/main.c    **** }
 262              		.loc 1 61 5 view .LVU34
 263 0056 CDF80490 		str	r9, [sp, #4]	@ tmp217,
 264              	@ src/main.c:51:     float sx = map((star->x / star->z) + 0.5f, 0.0f, 1.0f, 0.0f, WIDTH);
  51:src/main.c    ****     float sy = map((star->y / star->z) + 0.5f, 0.0f, 1.0f, 0.0f, HEIGHT);
 265              		.loc 1 51 29 view .LVU35
 266 005a 87EE005A 		vdiv.f32	s10, s14, s0	@ tmp189, _20, _51
 267              	@ src/main.c:56:     float px = map((star->x / star->pz) + 0.5f, 0.0f, 1.0f, 0.0f, WIDTH);
  56:src/main.c    ****     float py = map((star->y / star->pz) + 0.5f, 0.0f, 1.0f, 0.0f, HEIGHT);
 268              		.loc 1 56 29 view .LVU36
 269 005e C7EE265A 		vdiv.f32	s11, s14, s13	@ tmp203, _20, pretmp_118
 270              	@ src/main.c:57:     float py = map((star->y / star->pz) + 0.5f, 0.0f, 1.0f, 0.0f, HEIGHT);
  57:src/main.c    **** 
 271              		.loc 1 57 29 view .LVU37
 272 0062 87EEA66A 		vdiv.f32	s12, s15, s13	@ tmp208, _26, pretmp_118
 273              	@ src/main.c:51:     float sx = map((star->x / star->z) + 0.5f, 0.0f, 1.0f, 0.0f, WIDTH);
  51:src/main.c    ****     float sy = map((star->y / star->z) + 0.5f, 0.0f, 1.0f, 0.0f, HEIGHT);
 274              		.loc 1 51 16 view .LVU38
 275 0066 B6EE007A 		vmov.f32	s14, #5.0e-1	@ tmp191,
 276              	.LVL7:
 277              	@ src/main.c:52:     float sy = map((star->y / star->z) + 0.5f, 0.0f, 1.0f, 0.0f, HEIGHT);
  52:src/main.c    **** 
 278              		.loc 1 52 29 view .LVU39
ARM GAS  /var/folders/qt/4s_5gkqn5dzd2yn1mvbv2ymw0000gn/T//cci8QgSn.s 			page 8


 279 006a C7EE806A 		vdiv.f32	s13, s15, s0	@ tmp194, _26, _51
 280              	.LBB91:
 281              	.LBB87:
 282              	@ src/main.c:66:     return start2 + (stop2 - start2) * ((value - start1) / (stop1 - start1));
  66:src/main.c    **** }
 283              		.loc 1 66 19 view .LVU40
 284 006e F9EE004A 		vmov.f32	s9, #-4.0e+0	@ tmp201,
 285 0072 F1EE007A 		vmov.f32	s15, #4.0e+0	@ tmp202,
 286              	.LBE87:
 287              	.LBE91:
 288              	@ src/main.c:51:     float sx = map((star->x / star->z) + 0.5f, 0.0f, 1.0f, 0.0f, WIDTH);
  51:src/main.c    ****     float sy = map((star->y / star->z) + 0.5f, 0.0f, 1.0f, 0.0f, HEIGHT);
 289              		.loc 1 51 16 view .LVU41
 290 0076 35EE075A 		vadd.f32	s10, s10, s14	@ tmp190, tmp189, tmp191
 291              	.LVL8:
 292              	@ src/main.c:56:     float px = map((star->x / star->pz) + 0.5f, 0.0f, 1.0f, 0.0f, WIDTH);
  56:src/main.c    ****     float py = map((star->y / star->pz) + 0.5f, 0.0f, 1.0f, 0.0f, HEIGHT);
 293              		.loc 1 56 16 view .LVU42
 294 007a 75EE875A 		vadd.f32	s11, s11, s14	@ tmp204, tmp203, tmp191
 295              	.LBB92:
 296              	.LBB88:
 297              	@ src/main.c:66:     return start2 + (stop2 - start2) * ((value - start1) / (stop1 - start1));
  66:src/main.c    **** }
 298              		.loc 1 66 19 view .LVU43
 299 007e E4EE247A 		vfma.f32	s15, s8, s9	@ _33, tmp199, tmp201
 300              	.LBE88:
 301              	.LBE92:
 302              	.LBB93:
 303              	.LBB77:
 304 0082 F0EE484A 		vmov.f32	s9, s16	@ _25, tmp193
 305              	.LBE77:
 306              	.LBE93:
 307              	@ src/main.c:57:     float py = map((star->y / star->pz) + 0.5f, 0.0f, 1.0f, 0.0f, HEIGHT);
  57:src/main.c    **** 
 308              		.loc 1 57 16 view .LVU44
 309 0086 36EE076A 		vadd.f32	s12, s12, s14	@ tmp209, tmp208, tmp191
 310              	.LBB94:
 311              	.LBB78:
 312              	@ src/main.c:66:     return start2 + (stop2 - start2) * ((value - start1) / (stop1 - start1));
  66:src/main.c    **** }
 313              		.loc 1 66 19 view .LVU45
 314 008a E5EE284A 		vfma.f32	s9, s10, s17	@ _25, tmp190, tmp221
 315              	.LBE78:
 316              	.LBE94:
 317              	@ src/main.c:61:     pd->graphics->drawLine(px, py, sx, sy, r, kColorWhite);
  61:src/main.c    **** }
 318              		.loc 1 61 5 view .LVU46
 319 008e FDEEE77A 		vcvt.s32.f32	s15, s15	@ tmp218, _33
 320              	@ src/main.c:52:     float sy = map((star->y / star->z) + 0.5f, 0.0f, 1.0f, 0.0f, HEIGHT);
  52:src/main.c    **** 
 321              		.loc 1 52 16 view .LVU47
 322 0092 36EE877A 		vadd.f32	s14, s13, s14	@ tmp195, tmp194, tmp191
 323              	@ src/main.c:61:     pd->graphics->drawLine(px, py, sx, sy, r, kColorWhite);
  61:src/main.c    **** }
 324              		.loc 1 61 5 view .LVU48
 325 0096 CDED007A 		vstr.32	s15, [sp]	@ int	@ tmp218,
 326              	.LBB95:
ARM GAS  /var/folders/qt/4s_5gkqn5dzd2yn1mvbv2ymw0000gn/T//cci8QgSn.s 			page 9


 327              	.LBB79:
 328              	@ src/main.c:66:     return start2 + (stop2 - start2) * ((value - start1) / (stop1 - start1));
  66:src/main.c    **** }
 329              		.loc 1 66 19 view .LVU49
 330 009a B0EE645A 		vmov.f32	s10, s9	@ _25, _25
 331              	.LVL9:
  66:src/main.c    **** }
 332              		.loc 1 66 19 view .LVU50
 333              	.LBE79:
 334              	.LBE95:
  52:src/main.c    **** 
 335              		.loc 1 52 5 is_stmt 1 view .LVU51
 336              	.LBB96:
 337              	.LBI80:
  64:src/main.c    **** {
 338              		.loc 1 64 21 view .LVU52
 339              	.LBB82:
  66:src/main.c    **** }
 340              		.loc 1 66 5 view .LVU53
 341              	.LBE82:
 342              	.LBE96:
 343              	@ src/main.c:61:     pd->graphics->drawLine(px, py, sx, sy, r, kColorWhite);
  61:src/main.c    **** }
 344              		.loc 1 61 5 is_stmt 0 view .LVU54
 345 009e D3F83CA0 		ldr	r10, [r3, #60]	@ _19->drawLine, _19->drawLine
 346              	.LBB97:
 347              	.LBB98:
 348              	@ src/main.c:66:     return start2 + (stop2 - start2) * ((value - start1) / (stop1 - start1));
  66:src/main.c    **** }
 349              		.loc 1 66 19 view .LVU55
 350 00a2 F0EE484A 		vmov.f32	s9, s16	@ _38, tmp193
 351              	.LVL10:
  66:src/main.c    **** }
 352              		.loc 1 66 19 view .LVU56
 353              	.LBE98:
 354              	.LBE97:
 355              	@ src/main.c:61:     pd->graphics->drawLine(px, py, sx, sy, r, kColorWhite);
  61:src/main.c    **** }
 356              		.loc 1 61 5 view .LVU57
 357 00a6 FDEEC56A 		vcvt.s32.f32	s13, s10	@ tmp235, _25
 358              	.LBB102:
 359              	.LBB99:
 360              	@ src/main.c:66:     return start2 + (stop2 - start2) * ((value - start1) / (stop1 - start1));
  66:src/main.c    **** }
 361              		.loc 1 66 19 view .LVU58
 362 00aa E5EEA84A 		vfma.f32	s9, s11, s17	@ _38, tmp204, tmp221
 363              	.LBE99:
 364              	.LBE102:
 365              	@ src/main.c:61:     pd->graphics->drawLine(px, py, sx, sy, r, kColorWhite);
  61:src/main.c    **** }
 366              		.loc 1 61 5 view .LVU59
 367 00ae 16EE902A 		vmov	r2, s13	@ int	@, tmp235
 368              	.LBB103:
 369              	.LBB83:
 370              	@ src/main.c:66:     return start2 + (stop2 - start2) * ((value - start1) / (stop1 - start1));
  66:src/main.c    **** }
 371              		.loc 1 66 19 view .LVU60
ARM GAS  /var/folders/qt/4s_5gkqn5dzd2yn1mvbv2ymw0000gn/T//cci8QgSn.s 			page 10


 372 00b2 F0EE486A 		vmov.f32	s13, s16	@ _30, tmp193
 373 00b6 E7EE096A 		vfma.f32	s13, s14, s18	@ _30, tmp195, tmp197
 374              	.LBE83:
 375              	.LBE103:
 376              	.LBB104:
 377              	.LBB100:
 378 00ba F0EE645A 		vmov.f32	s11, s9	@ _38, _38
 379              	.LBE100:
 380              	.LBE104:
 381              	.LBB105:
 382              	.LBB106:
 383 00be F0EE484A 		vmov.f32	s9, s16	@ _42, tmp193
 384 00c2 E6EE094A 		vfma.f32	s9, s12, s18	@ _42, tmp209, tmp197
 385              	.LBE106:
 386              	.LBE105:
 387              	.LBB108:
 388              	.LBB84:
 389 00c6 B0EE667A 		vmov.f32	s14, s13	@ _30, _30
 390              	.LVL11:
  66:src/main.c    **** }
 391              		.loc 1 66 19 view .LVU61
 392              	.LBE84:
 393              	.LBE108:
  54:src/main.c    **** 
 394              		.loc 1 54 5 is_stmt 1 view .LVU62
 395              	.LBB109:
 396              	.LBI85:
  64:src/main.c    **** {
 397              		.loc 1 64 21 view .LVU63
 398              	.LBB89:
  66:src/main.c    **** }
 399              		.loc 1 66 5 view .LVU64
  66:src/main.c    **** }
 400              		.loc 1 66 5 is_stmt 0 view .LVU65
 401              	.LBE89:
 402              	.LBE109:
  56:src/main.c    ****     float py = map((star->y / star->pz) + 0.5f, 0.0f, 1.0f, 0.0f, HEIGHT);
 403              		.loc 1 56 5 is_stmt 1 view .LVU66
 404              	.LBB110:
 405              	.LBI97:
  64:src/main.c    **** {
 406              		.loc 1 64 21 view .LVU67
 407              	.LBB101:
  66:src/main.c    **** }
 408              		.loc 1 66 5 view .LVU68
  66:src/main.c    **** }
 409              		.loc 1 66 5 is_stmt 0 view .LVU69
 410              	.LBE101:
 411              	.LBE110:
  57:src/main.c    **** 
 412              		.loc 1 57 5 is_stmt 1 view .LVU70
 413              	.LBB111:
 414              	.LBI105:
  64:src/main.c    **** {
 415              		.loc 1 64 21 view .LVU71
 416              	.LBB107:
  66:src/main.c    **** }
ARM GAS  /var/folders/qt/4s_5gkqn5dzd2yn1mvbv2ymw0000gn/T//cci8QgSn.s 			page 11


 417              		.loc 1 66 5 view .LVU72
  66:src/main.c    **** }
 418              		.loc 1 66 5 is_stmt 0 view .LVU73
 419              	.LBE107:
 420              	.LBE111:
  59:src/main.c    **** 
 421              		.loc 1 59 5 is_stmt 1 view .LVU74
  61:src/main.c    **** }
 422              		.loc 1 61 5 view .LVU75
 423 00ca FDEEE56A 		vcvt.s32.f32	s13, s11	@ tmp237, _38
 424              	.LVL12:
  61:src/main.c    **** }
 425              		.loc 1 61 5 is_stmt 0 view .LVU76
 426 00ce 16EE900A 		vmov	r0, s13	@ int	@, tmp237
 427 00d2 FDEEE47A 		vcvt.s32.f32	s15, s9	@ tmp238, _42
 428 00d6 17EE901A 		vmov	r1, s15	@ int	@, tmp238
 429 00da FDEEC77A 		vcvt.s32.f32	s15, s14	@ tmp239, _30
 430 00de 17EE903A 		vmov	r3, s15	@ int	@, tmp239
 431 00e2 D047     		blx	r10		@ _19->drawLine
 432              	.LVL13:
  61:src/main.c    **** }
 433              		.loc 1 61 5 view .LVU77
 434              	.LBE113:
 435              	.LBE115:
  97:src/main.c    ****     {
 436              		.loc 1 97 32 is_stmt 1 view .LVU78
  97:src/main.c    ****     {
 437              		.loc 1 97 21 view .LVU79
 438              	@ src/main.c:97:     for (int i = 0; i < STARS; i++)
  97:src/main.c    ****     {
 439              		.loc 1 97 5 is_stmt 0 view .LVU80
 440 00e4 A642     		cmp	r6, r4	@ _96, ivtmp.15
 441 00e6 3AD0     		beq	.L8		@,
 442              	.LVL14:
 443              	.L4:
  99:src/main.c    ****         star_show(&starfield[i], pd);
 444              		.loc 1 99 9 is_stmt 1 discriminator 3 view .LVU81
 445              	@ src/main.c:99:         star_update(&starfield[i], pd->system->getCrankChange());
  99:src/main.c    ****         star_show(&starfield[i], pd);
 446              		.loc 1 99 46 is_stmt 0 discriminator 3 view .LVU82
 447 00e8 2B68     		ldr	r3, [r5]	@ MEM[(struct PlaydateAPI *)userdata_11(D)].system, MEM[(struct PlaydateAPI *)userdat
 448              	@ src/main.c:99:         star_update(&starfield[i], pd->system->getCrankChange());
  99:src/main.c    ****         star_show(&starfield[i], pd);
 449              		.loc 1 99 9 discriminator 3 view .LVU83
 450 00ea 1B6B     		ldr	r3, [r3, #48]	@ _6->getCrankChange, _6->getCrankChange
 451 00ec 9847     		blx	r3		@ _6->getCrankChange
 452              	.LVL15:
 453              	.LBB116:
 454              	.LBI52:
  37:src/main.c    **** {
 455              		.loc 1 37 20 is_stmt 1 discriminator 3 view .LVU84
 456              	.LBB69:
  39:src/main.c    ****     if (star->z < 1.0f)
 457              		.loc 1 39 5 discriminator 3 view .LVU85
 458              	@ src/main.c:39:     star->z -= speed;
  39:src/main.c    ****     if (star->z < 1.0f)
 459              		.loc 1 39 13 is_stmt 0 discriminator 3 view .LVU86
ARM GAS  /var/folders/qt/4s_5gkqn5dzd2yn1mvbv2ymw0000gn/T//cci8QgSn.s 			page 12


 460 00ee D4ED027A 		vldr.32	s15, [r4, #8]	@ MEM[base: _105, offset: 8B], MEM[base: _105, offset: 8B]
 461 00f2 37EEC00A 		vsub.f32	s0, s15, s0	@ _51, MEM[base: _105, offset: 8B], tmp225
 462              	.LVL16:
 463              	@ src/main.c:40:     if (star->z < 1.0f)
  40:src/main.c    ****     {
 464              		.loc 1 40 8 discriminator 3 view .LVU87
 465 00f6 B4EEE90A 		vcmpe.f32	s0, s19	@ _51, tmp164
 466              	@ src/main.c:39:     star->z -= speed;
  39:src/main.c    ****     if (star->z < 1.0f)
 467              		.loc 1 39 13 discriminator 3 view .LVU88
 468 00fa 84ED020A 		vstr.32	s0, [r4, #8]	@ _51, MEM[base: _105, offset: 8B]
  40:src/main.c    ****     {
 469              		.loc 1 40 5 is_stmt 1 discriminator 3 view .LVU89
 470              	@ src/main.c:40:     if (star->z < 1.0f)
  40:src/main.c    ****     {
 471              		.loc 1 40 8 is_stmt 0 discriminator 3 view .LVU90
 472 00fe F1EE10FA 		vmrs	APSR_nzcv, FPSCR
 473 0102 9AD5     		bpl	.L9		@,
  42:src/main.c    ****         star->x = randomf(rand(), -WIDTH, WIDTH);
 474              		.loc 1 42 9 is_stmt 1 view .LVU91
 475              	@ src/main.c:42:         star->z = WIDTH;
  42:src/main.c    ****         star->x = randomf(rand(), -WIDTH, WIDTH);
 476              		.loc 1 42 17 is_stmt 0 view .LVU92
 477 0104 C4ED028A 		vstr.32	s17, [r4, #8]	@ tmp221, MEM[base: _105, offset: 8B]
  43:src/main.c    ****         star->y = randomf(rand(), -HEIGHT, HEIGHT);
 478              		.loc 1 43 9 is_stmt 1 view .LVU93
 479              	@ src/main.c:43:         star->x = randomf(rand(), -WIDTH, WIDTH);
  43:src/main.c    ****         star->y = randomf(rand(), -HEIGHT, HEIGHT);
 480              		.loc 1 43 19 is_stmt 0 view .LVU94
 481 0108 FFF7FEFF 		bl	rand		@
 482              	.LVL17:
 483              	.LBB63:
 484              	.LBB56:
 485              	@ src/main.c:71:     return value % (max - min) + min;
  71:src/main.c    **** }
 486              		.loc 1 71 18 view .LVU95
 487 010c 88FB0031 		smull	r3, r1, r8, r0	@ tmp228, tmp167, tmp222, _52
 488 0110 C317     		asrs	r3, r0, #31	@ tmp170, _52,
 489 0112 4FF44872 		mov	r2, #800	@ tmp172,
 490              	.LVL18:
  71:src/main.c    **** }
 491              		.loc 1 71 18 view .LVU96
 492              	.LBE56:
 493              	.LBI54:
  69:src/main.c    **** {
 494              		.loc 1 69 19 is_stmt 1 view .LVU97
 495              	.LBB57:
  71:src/main.c    **** }
 496              		.loc 1 71 5 view .LVU98
 497              	@ src/main.c:71:     return value % (max - min) + min;
  71:src/main.c    **** }
 498              		.loc 1 71 18 is_stmt 0 view .LVU99
 499 0116 C3EB2123 		rsb	r3, r3, r1, asr #8	@ tmp166, tmp170, tmp167,
 500 011a 02FB1300 		mls	r0, r2, r3, r0	@ tmp173, tmp172, tmp166, _52
 501              	@ src/main.c:71:     return value % (max - min) + min;
  71:src/main.c    **** }
 502              		.loc 1 71 32 view .LVU100
ARM GAS  /var/folders/qt/4s_5gkqn5dzd2yn1mvbv2ymw0000gn/T//cci8QgSn.s 			page 13


 503 011e A0F5C870 		sub	r0, r0, #400	@ tmp174, tmp173,
 504              	.LBE57:
 505              	.LBE63:
 506              	@ src/main.c:43:         star->x = randomf(rand(), -WIDTH, WIDTH);
  43:src/main.c    ****         star->y = randomf(rand(), -HEIGHT, HEIGHT);
 507              		.loc 1 43 17 view .LVU101
 508 0122 07EE900A 		vmov	s15, r0	@ int	@ tmp174, tmp174
 509 0126 F8EEE77A 		vcvt.f32.s32	s15, s15	@ tmp175, tmp174
 510 012a C4ED007A 		vstr.32	s15, [r4]	@ tmp175, MEM[base: _105, offset: 0B]
  44:src/main.c    ****         star->pz = star->z;
 511              		.loc 1 44 9 is_stmt 1 view .LVU102
 512              	@ src/main.c:44:         star->y = randomf(rand(), -HEIGHT, HEIGHT);
  44:src/main.c    ****         star->pz = star->z;
 513              		.loc 1 44 19 is_stmt 0 view .LVU103
 514 012e FFF7FEFF 		bl	rand		@
 515              	.LVL19:
 516              	.LBB64:
 517              	.LBB60:
 518              	@ src/main.c:71:     return value % (max - min) + min;
  71:src/main.c    **** }
 519              		.loc 1 71 18 view .LVU104
 520 0132 87FB0032 		smull	r3, r2, r7, r0	@ tmp229, tmp177, tmp223, _56
 521 0136 C317     		asrs	r3, r0, #31	@ tmp181, _56,
 522              	.LBE60:
 523              	.LBE64:
 524              	@ src/main.c:45:         star->pz = star->z;
  45:src/main.c    ****     }
 525              		.loc 1 45 24 view .LVU105
 526 0138 94ED020A 		vldr.32	s0, [r4, #8]	@ _51, MEM[base: _105, offset: 8B]
 527              	.LVL20:
 528              	.LBB65:
 529              	.LBI58:
  69:src/main.c    **** {
 530              		.loc 1 69 19 is_stmt 1 view .LVU106
 531              	.LBB61:
  71:src/main.c    **** }
 532              		.loc 1 71 5 view .LVU107
 533              	@ src/main.c:71:     return value % (max - min) + min;
  71:src/main.c    **** }
 534              		.loc 1 71 18 is_stmt 0 view .LVU108
 535 013c 0244     		add	r2, r2, r0	@ tmp179, _56
 536              	.LBE61:
 537              	.LBE65:
 538              	@ src/main.c:45:         star->pz = star->z;
  45:src/main.c    ****     }
 539              		.loc 1 45 24 view .LVU109
 540 013e F0EE406A 		vmov.f32	s13, s0	@ pretmp_118, _51
 541              	.LBB66:
 542              	.LBB62:
 543              	@ src/main.c:71:     return value % (max - min) + min;
  71:src/main.c    **** }
 544              		.loc 1 71 18 view .LVU110
 545 0142 C3EB2223 		rsb	r3, r3, r2, asr #8	@ tmp176, tmp181, tmp179,
 546 0146 C3EB0313 		rsb	r3, r3, r3, lsl #4	@ tmp184, tmp176, tmp176,
 547 014a A0EB4310 		sub	r0, r0, r3, lsl #5	@ tmp186, _56, tmp184,
 548              	@ src/main.c:71:     return value % (max - min) + min;
  71:src/main.c    **** }
ARM GAS  /var/folders/qt/4s_5gkqn5dzd2yn1mvbv2ymw0000gn/T//cci8QgSn.s 			page 14


 549              		.loc 1 71 32 view .LVU111
 550 014e F038     		subs	r0, r0, #240	@ tmp187, tmp186,
 551              	.LBE62:
 552              	.LBE66:
 553              	@ src/main.c:44:         star->y = randomf(rand(), -HEIGHT, HEIGHT);
  44:src/main.c    ****         star->pz = star->z;
 554              		.loc 1 44 17 view .LVU112
 555 0150 07EE900A 		vmov	s15, r0	@ int	@ tmp187, tmp187
 556 0154 F8EEE77A 		vcvt.f32.s32	s15, s15	@ tmp188, tmp187
 557 0158 C4ED017A 		vstr.32	s15, [r4, #4]	@ tmp188, MEM[base: _105, offset: 4B]
  45:src/main.c    ****     }
 558              		.loc 1 45 9 is_stmt 1 view .LVU113
 559 015c 6FE7     		b	.L3		@
 560              	.LVL21:
 561              	.L8:
  45:src/main.c    ****     }
 562              		.loc 1 45 9 is_stmt 0 view .LVU114
 563              	.LBE69:
 564              	.LBE116:
 565              	.LBE120:
 101:src/main.c    ****     }
 102:src/main.c    **** 
 103:src/main.c    ****     return 1;
 566              		.loc 1 103 5 is_stmt 1 view .LVU115
 567              	@ src/main.c:104: }
 104:src/main.c    **** }
 568              		.loc 1 104 1 is_stmt 0 view .LVU116
 569 015e 4846     		mov	r0, r9	@, tmp217
 570 0160 02B0     		add	sp, sp, #8	@,,
 571              	.LCFI3:
 572              		.cfi_def_cfa_offset 48
 573              		@ sp needed	@
 574 0162 BDEC048B 		vldm	sp!, {d8-d9}	@,
 575              	.LCFI4:
 576              		.cfi_restore 82
 577              		.cfi_restore 83
 578              		.cfi_restore 80
 579              		.cfi_restore 81
 580              		.cfi_def_cfa_offset 32
 581 0166 BDE8F087 		pop	{r4, r5, r6, r7, r8, r9, r10, pc}	@
 582              	.LVL22:
 583              	.L11:
 584              		.loc 1 104 1 view .LVU117
 585 016a 00BF     		.align	2
 586              	.L10:
 587 016c 00000000 		.word	starfield
 588 0170 00710200 		.word	starfield+160000
 589 0174 89888888 		.word	-2004318071
 590 0178 0000C843 		.word	1137180672
 591 017c 00000000 		.word	0
 592 0180 00007043 		.word	1131413504
 593 0184 1F85EB51 		.word	1374389535
 594              		.cfi_endproc
 595              	.LFE21:
 596              		.size	update, .-update
 597              		.section	.text.eventHandler,"ax",%progbits
 598              		.align	1
ARM GAS  /var/folders/qt/4s_5gkqn5dzd2yn1mvbv2ymw0000gn/T//cci8QgSn.s 			page 15


 599              		.p2align 4,,15
 600              		.global	eventHandler
 601              		.syntax unified
 602              		.thumb
 603              		.thumb_func
 604              		.fpu fpv5-sp-d16
 605              		.type	eventHandler, %function
 606              	eventHandler:
 607              	.LVL23:
 608              	.LFB20:
  75:src/main.c    ****     if (event == kEventInit)
 609              		.loc 1 75 1 is_stmt 1 view -0
 610              		.cfi_startproc
 611              		@ args = 0, pretend = 0, frame = 0
 612              		@ frame_needed = 0, uses_anonymous_args = 0
  76:src/main.c    ****     {
 613              		.loc 1 76 5 view .LVU119
 614              	@ src/main.c:76:     if (event == kEventInit)
  76:src/main.c    ****     {
 615              		.loc 1 76 8 is_stmt 0 view .LVU120
 616 0000 0029     		cmp	r1, #0	@ tmp173
 617 0002 53D1     		bne	.L17	@
 618              	@ src/main.c:75: {
  75:src/main.c    ****     if (event == kEventInit)
 619              		.loc 1 75 1 view .LVU121
 620 0004 2DE9F047 		push	{r4, r5, r6, r7, r8, r9, r10, lr}	@
 621              	.LCFI5:
 622              		.cfi_def_cfa_offset 32
 623              		.cfi_offset 4, -32
 624              		.cfi_offset 5, -28
 625              		.cfi_offset 6, -24
 626              		.cfi_offset 7, -20
 627              		.cfi_offset 8, -16
 628              		.cfi_offset 9, -12
 629              		.cfi_offset 10, -8
 630              		.cfi_offset 14, -4
 631 0008 8046     		mov	r8, r0	@ pd, tmp172
 632 000a DFF8B890 		ldr	r9, .L20+20	@ ivtmp.24,
 633              	.LBB130:
 634              	.LBB131:
 635              	.LBB132:
 636              	.LBB133:
 637              	.LBB134:
 638              	@ src/main.c:71:     return value % (max - min) + min;
  71:src/main.c    **** }
 639              		.loc 1 71 18 view .LVU122
 640 000e 4FF44877 		mov	r7, #800	@ tmp139,
 641 0012 274E     		ldr	r6, .L20	@ _40,
 642 0014 274C     		ldr	r4, .L20+4	@ tmp135,
 643              	.LBE134:
 644              	.LBE133:
 645              	.LBB136:
 646              	.LBB137:
 647 0016 284D     		ldr	r5, .L20+8	@ tmp145,
 648              	.LVL24:
 649              	.L14:
  71:src/main.c    **** }
ARM GAS  /var/folders/qt/4s_5gkqn5dzd2yn1mvbv2ymw0000gn/T//cci8QgSn.s 			page 16


 650              		.loc 1 71 18 view .LVU123
 651              	.LBE137:
 652              	.LBE136:
 653              	.LBE132:
 654              	.LBE131:
  80:src/main.c    ****         }
 655              		.loc 1 80 13 is_stmt 1 discriminator 3 view .LVU124
 656              	.LBB160:
 657              	.LBI131:
  28:src/main.c    **** {
 658              		.loc 1 28 20 discriminator 3 view .LVU125
 659              	.LBB159:
  30:src/main.c    ****     star->x = randomf(rand(), -WIDTH, WIDTH);
 660              		.loc 1 30 5 discriminator 3 view .LVU126
 661              	@ src/main.c:30:     int z = randomf(rand(), 0, WIDTH);
  30:src/main.c    ****     star->x = randomf(rand(), -WIDTH, WIDTH);
 662              		.loc 1 30 13 is_stmt 0 discriminator 3 view .LVU127
 663 0018 FFF7FEFF 		bl	rand		@
 664              	.LVL25:
 665 001c 8246     		mov	r10, r0	@ _16, tmp174
 666              	.LVL26:
 667              	.LBB144:
 668              	.LBI144:
  69:src/main.c    **** {
 669              		.loc 1 69 19 is_stmt 1 discriminator 3 view .LVU128
 670              	.LBB145:
  71:src/main.c    **** }
 671              		.loc 1 71 5 discriminator 3 view .LVU129
  71:src/main.c    **** }
 672              		.loc 1 71 5 is_stmt 0 discriminator 3 view .LVU130
 673              	.LBE145:
 674              	.LBE144:
  31:src/main.c    ****     star->y = randomf(rand(), -HEIGHT, HEIGHT);
 675              		.loc 1 31 5 is_stmt 1 discriminator 3 view .LVU131
 676              	@ src/main.c:31:     star->x = randomf(rand(), -WIDTH, WIDTH);
  31:src/main.c    ****     star->y = randomf(rand(), -HEIGHT, HEIGHT);
 677              		.loc 1 31 15 is_stmt 0 discriminator 3 view .LVU132
 678 001e FFF7FEFF 		bl	rand		@
 679              	.LVL27:
 680              	.LBB149:
 681              	.LBI133:
  69:src/main.c    **** {
 682              		.loc 1 69 19 is_stmt 1 discriminator 3 view .LVU133
 683              	.LBB135:
  71:src/main.c    **** }
 684              		.loc 1 71 5 discriminator 3 view .LVU134
 685              	@ src/main.c:71:     return value % (max - min) + min;
  71:src/main.c    **** }
 686              		.loc 1 71 18 is_stmt 0 discriminator 3 view .LVU135
 687 0022 84FB0023 		smull	r2, r3, r4, r0	@ tmp177, tmp134, tmp135, _18
 688 0026 C217     		asrs	r2, r0, #31	@ tmp137, _18,
 689 0028 09F11009 		add	r9, r9, #16	@ ivtmp.24, ivtmp.24,
 690 002c C2EB2322 		rsb	r2, r2, r3, asr #8	@ tmp133, tmp137, tmp134,
 691 0030 07FB1203 		mls	r3, r7, r2, r0	@ tmp140, tmp139, tmp133, _18
 692              	@ src/main.c:71:     return value % (max - min) + min;
  71:src/main.c    **** }
 693              		.loc 1 71 32 discriminator 3 view .LVU136
ARM GAS  /var/folders/qt/4s_5gkqn5dzd2yn1mvbv2ymw0000gn/T//cci8QgSn.s 			page 17


 694 0034 A3F5C873 		sub	r3, r3, #400	@ tmp141, tmp140,
 695              	.LBE135:
 696              	.LBE149:
 697              	@ src/main.c:31:     star->x = randomf(rand(), -WIDTH, WIDTH);
  31:src/main.c    ****     star->y = randomf(rand(), -HEIGHT, HEIGHT);
 698              		.loc 1 31 13 discriminator 3 view .LVU137
 699 0038 07EE903A 		vmov	s15, r3	@ int	@ tmp141, tmp141
 700 003c F8EEE77A 		vcvt.f32.s32	s15, s15	@ tmp142, tmp141
 701 0040 49ED047A 		vstr.32	s15, [r9, #-16]	@ tmp142, MEM[base: _33, offset: 0B]
  32:src/main.c    ****     star->z = z;
 702              		.loc 1 32 5 is_stmt 1 discriminator 3 view .LVU138
 703              	@ src/main.c:32:     star->y = randomf(rand(), -HEIGHT, HEIGHT);
  32:src/main.c    ****     star->z = z;
 704              		.loc 1 32 15 is_stmt 0 discriminator 3 view .LVU139
 705 0044 FFF7FEFF 		bl	rand		@
 706              	.LVL28:
 707              	.LBB150:
 708              	.LBB146:
 709              	@ src/main.c:71:     return value % (max - min) + min;
  71:src/main.c    **** }
 710              		.loc 1 71 18 discriminator 3 view .LVU140
 711 0048 84FB0A32 		smull	r3, r2, r4, r10	@ tmp178, tmp157, tmp135, _16
 712 004c 4FEAEA73 		asr	r3, r10, #31	@ tmp160, _16,
 713 0050 4FF4C87C 		mov	ip, #400	@ tmp162,
 714              	.LVL29:
  71:src/main.c    **** }
 715              		.loc 1 71 18 discriminator 3 view .LVU141
 716              	.LBE146:
 717              	.LBE150:
 718              	.LBB151:
 719              	.LBI136:
  69:src/main.c    **** {
 720              		.loc 1 69 19 is_stmt 1 discriminator 3 view .LVU142
 721              	.LBB138:
  71:src/main.c    **** }
 722              		.loc 1 71 5 discriminator 3 view .LVU143
  71:src/main.c    **** }
 723              		.loc 1 71 5 is_stmt 0 discriminator 3 view .LVU144
 724              	.LBE138:
 725              	.LBE151:
 726              	.LBB152:
 727              	.LBB147:
 728              	@ src/main.c:71:     return value % (max - min) + min;
  71:src/main.c    **** }
 729              		.loc 1 71 18 discriminator 3 view .LVU145
 730 0054 C3EBE213 		rsb	r3, r3, r2, asr #7	@ tmp156, tmp160, tmp157,
 731              	.LBE147:
 732              	.LBE152:
 733              	.LBB153:
 734              	.LBB139:
 735 0058 85FB0021 		smull	r2, r1, r5, r0	@ tmp179, tmp144, tmp145, _22
 736 005c C217     		asrs	r2, r0, #31	@ tmp148, _22,
 737              	.LBE139:
 738              	.LBE153:
 739              	.LBB154:
 740              	.LBB148:
 741 005e 0CFB13A3 		mls	r3, ip, r3, r10	@ tmp163, tmp162, tmp156, _16
ARM GAS  /var/folders/qt/4s_5gkqn5dzd2yn1mvbv2ymw0000gn/T//cci8QgSn.s 			page 18


 742              	.LBE148:
 743              	.LBE154:
 744              	.LBB155:
 745              	.LBB140:
 746 0062 0144     		add	r1, r1, r0	@ tmp146, _22
 747              	.LBE140:
 748              	.LBE155:
 749              	@ src/main.c:33:     star->z = z;
  33:src/main.c    ****     star->pz = star->pz;
 750              		.loc 1 33 13 discriminator 3 view .LVU146
 751 0064 07EE903A 		vmov	s15, r3	@ int	@ tmp163, tmp163
 752              	.LBB156:
 753              	.LBB141:
 754              	@ src/main.c:71:     return value % (max - min) + min;
  71:src/main.c    **** }
 755              		.loc 1 71 18 discriminator 3 view .LVU147
 756 0068 C2EB2123 		rsb	r3, r2, r1, asr #8	@ tmp143, tmp148, tmp146,
 757 006c C3EB0313 		rsb	r3, r3, r3, lsl #4	@ tmp151, tmp143, tmp143,
 758              	.LBE141:
 759              	.LBE156:
 760              	@ src/main.c:33:     star->z = z;
  33:src/main.c    ****     star->pz = star->pz;
 761              		.loc 1 33 13 discriminator 3 view .LVU148
 762 0070 F8EEE77A 		vcvt.f32.s32	s15, s15	@ tmp164, tmp163
 763              	.LBB157:
 764              	.LBB142:
 765              	@ src/main.c:71:     return value % (max - min) + min;
  71:src/main.c    **** }
 766              		.loc 1 71 18 discriminator 3 view .LVU149
 767 0074 A0EB4310 		sub	r0, r0, r3, lsl #5	@ tmp153, _22, tmp151,
 768              	.LBE142:
 769              	.LBE157:
 770              	@ src/main.c:33:     star->z = z;
  33:src/main.c    ****     star->pz = star->pz;
 771              		.loc 1 33 13 discriminator 3 view .LVU150
 772 0078 49ED027A 		vstr.32	s15, [r9, #-8]	@ tmp164, MEM[base: _33, offset: 8B]
 773              	.LBB158:
 774              	.LBB143:
 775              	@ src/main.c:71:     return value % (max - min) + min;
  71:src/main.c    **** }
 776              		.loc 1 71 32 discriminator 3 view .LVU151
 777 007c F038     		subs	r0, r0, #240	@ tmp154, tmp153,
 778              	.LBE143:
 779              	.LBE158:
 780              	@ src/main.c:32:     star->y = randomf(rand(), -HEIGHT, HEIGHT);
  32:src/main.c    ****     star->z = z;
 781              		.loc 1 32 13 discriminator 3 view .LVU152
 782 007e 07EE900A 		vmov	s15, r0	@ int	@ tmp154, tmp154
 783 0082 F8EEE77A 		vcvt.f32.s32	s15, s15	@ tmp155, tmp154
 784 0086 49ED037A 		vstr.32	s15, [r9, #-12]	@ tmp155, MEM[base: _33, offset: 4B]
  33:src/main.c    ****     star->pz = star->pz;
 785              		.loc 1 33 5 is_stmt 1 discriminator 3 view .LVU153
  34:src/main.c    **** }
 786              		.loc 1 34 5 discriminator 3 view .LVU154
  34:src/main.c    **** }
 787              		.loc 1 34 5 is_stmt 0 discriminator 3 view .LVU155
 788              	.LBE159:
ARM GAS  /var/folders/qt/4s_5gkqn5dzd2yn1mvbv2ymw0000gn/T//cci8QgSn.s 			page 19


 789              	.LBE160:
  78:src/main.c    ****         {
 790              		.loc 1 78 36 is_stmt 1 discriminator 3 view .LVU156
  78:src/main.c    ****         {
 791              		.loc 1 78 25 discriminator 3 view .LVU157
 792              	@ src/main.c:78:         for (int i = 0; i < STARS; i++)
  78:src/main.c    ****         {
 793              		.loc 1 78 9 is_stmt 0 discriminator 3 view .LVU158
 794 008a B145     		cmp	r9, r6	@ ivtmp.24, _40
 795 008c C4D1     		bne	.L14		@,
 796              	.LBE130:
  83:src/main.c    ****         pd->system->setUpdateCallback(update, pd);
 797              		.loc 1 83 9 is_stmt 1 view .LVU159
 798              	@ src/main.c:83:         pd->display->setRefreshRate(50.0f);
  83:src/main.c    ****         pd->system->setUpdateCallback(update, pd);
 799              		.loc 1 83 20 is_stmt 0 view .LVU160
 800 008e D8F81030 		ldr	r3, [r8, #16]	@ pd_11(D)->display, pd_11(D)->display
 801              	@ src/main.c:83:         pd->display->setRefreshRate(50.0f);
  83:src/main.c    ****         pd->system->setUpdateCallback(update, pd);
 802              		.loc 1 83 9 view .LVU161
 803 0092 9FED0A0A 		vldr.32	s0, .L20+12	@,
 804 0096 9B68     		ldr	r3, [r3, #8]	@ _2->setRefreshRate, _2->setRefreshRate
 805 0098 9847     		blx	r3		@ _2->setRefreshRate
 806              	.LVL30:
  84:src/main.c    ****     }
 807              		.loc 1 84 9 is_stmt 1 view .LVU162
 808              	@ src/main.c:84:         pd->system->setUpdateCallback(update, pd);
  84:src/main.c    ****     }
 809              		.loc 1 84 19 is_stmt 0 view .LVU163
 810 009a D8F80030 		ldr	r3, [r8]	@ pd_11(D)->system, pd_11(D)->system
 811              	@ src/main.c:84:         pd->system->setUpdateCallback(update, pd);
  84:src/main.c    ****     }
 812              		.loc 1 84 9 view .LVU164
 813 009e 4146     		mov	r1, r8	@, pd
 814 00a0 0748     		ldr	r0, .L20+16	@,
 815 00a2 1B6A     		ldr	r3, [r3, #32]	@ _4->setUpdateCallback, _4->setUpdateCallback
 816 00a4 9847     		blx	r3		@ _4->setUpdateCallback
 817              	.LVL31:
  87:src/main.c    **** }
 818              		.loc 1 87 5 is_stmt 1 view .LVU165
 819              	@ src/main.c:88: }
  88:src/main.c    **** 
 820              		.loc 1 88 1 is_stmt 0 view .LVU166
 821 00a6 0020     		movs	r0, #0	@,
 822 00a8 BDE8F087 		pop	{r4, r5, r6, r7, r8, r9, r10, pc}	@
 823              	.LVL32:
 824              	.L17:
 825              	.LCFI6:
 826              		.cfi_def_cfa_offset 0
 827              		.cfi_restore 4
 828              		.cfi_restore 5
 829              		.cfi_restore 6
 830              		.cfi_restore 7
 831              		.cfi_restore 8
 832              		.cfi_restore 9
 833              		.cfi_restore 10
 834              		.cfi_restore 14
ARM GAS  /var/folders/qt/4s_5gkqn5dzd2yn1mvbv2ymw0000gn/T//cci8QgSn.s 			page 20


  87:src/main.c    **** }
 835              		.loc 1 87 5 is_stmt 1 view .LVU167
 836              	@ src/main.c:88: }
  88:src/main.c    **** 
 837              		.loc 1 88 1 is_stmt 0 view .LVU168
 838 00ac 0020     		movs	r0, #0	@,
 839              	.LVL33:
  88:src/main.c    **** 
 840              		.loc 1 88 1 view .LVU169
 841 00ae 7047     		bx	lr	@
 842              	.L21:
 843              		.align	2
 844              	.L20:
 845 00b0 00710200 		.word	starfield+160000
 846 00b4 1F85EB51 		.word	1374389535
 847 00b8 89888888 		.word	-2004318071
 848 00bc 00004842 		.word	1112014848
 849 00c0 00000000 		.word	update
 850 00c4 00000000 		.word	starfield
 851              		.cfi_endproc
 852              	.LFE20:
 853              		.size	eventHandler, .-eventHandler
 854              		.section	.bss.starfield,"aw",%nobits
 855              		.align	2
 856              		.type	starfield, %object
 857              		.size	starfield, 160000
 858              	starfield:
 859 0000 00000000 		.space	160000
 859      00000000 
 859      00000000 
 859      00000000 
 859      00000000 
 860              		.text
 861              	.Letext0:
 862              		.file 2 "/usr/local/playdate/gcc-arm-none-eabi-9-2019-q4-major/arm-none-eabi/include/machine/_defa
 863              		.file 3 "/usr/local/playdate/gcc-arm-none-eabi-9-2019-q4-major/lib/gcc/arm-none-eabi/9.2.1/include
 864              		.file 4 "/usr/local/playdate/gcc-arm-none-eabi-9-2019-q4-major/arm-none-eabi/include/sys/lock.h"
 865              		.file 5 "/usr/local/playdate/gcc-arm-none-eabi-9-2019-q4-major/arm-none-eabi/include/sys/_types.h"
 866              		.file 6 "/usr/local/playdate/gcc-arm-none-eabi-9-2019-q4-major/arm-none-eabi/include/sys/reent.h"
 867              		.file 7 "/usr/local/playdate/gcc-arm-none-eabi-9-2019-q4-major/arm-none-eabi/include/sys/_stdint.h
 868              		.file 8 "/usr/local/playdate/gcc-arm-none-eabi-9-2019-q4-major/arm-none-eabi/include/stdlib.h"
 869              		.file 9 "/Users/pomettini/Developer/PlaydateSDK/C_API/pd_api/pd_api_gfx.h"
 870              		.file 10 "/Users/pomettini/Developer/PlaydateSDK/C_API/pd_api/pd_api_sys.h"
 871              		.file 11 "/Users/pomettini/Developer/PlaydateSDK/C_API/pd_api/pd_api_lua.h"
 872              		.file 12 "/Users/pomettini/Developer/PlaydateSDK/C_API/pd_api/pd_api_json.h"
 873              		.file 13 "/Users/pomettini/Developer/PlaydateSDK/C_API/pd_api/pd_api_file.h"
 874              		.file 14 "/Users/pomettini/Developer/PlaydateSDK/C_API/pd_api/pd_api_sprite.h"
 875              		.file 15 "/Users/pomettini/Developer/PlaydateSDK/C_API/pd_api/pd_api_sound.h"
 876              		.file 16 "/usr/local/playdate/gcc-arm-none-eabi-9-2019-q4-major/arm-none-eabi/include/math.h"
 877              		.file 17 "/Users/pomettini/Developer/PlaydateSDK/C_API/pd_api/pd_api_display.h"
 878              		.file 18 "/Users/pomettini/Developer/PlaydateSDK/C_API/pd_api/pd_api_scoreboards.h"
 879              		.file 19 "/Users/pomettini/Developer/PlaydateSDK/C_API/pd_api.h"